target datalayout = "e-m:e-p270:32:32-p271:32:32-p272:64:64-i64:64-i128:128-f80:128-n8:16:32:64-S128"
target triple = "x86_64-unknown-linux-gnu"

%"struct.facebook::velox::expression::calculate::Parser::by_state" = type { i8 }
%"struct.facebook::velox::expression::calculate::Parser::basic_symbol" = type { %"struct.facebook::velox::expression::calculate::Parser::by_state", %"class.facebook::velox::expression::calculate::Parser::value_type" }
%"class.facebook::velox::expression::calculate::Parser::value_type" = type { %union.anon.0 }
%union.anon.0 = type { x86_fp80, [16 x i8] }

@_ZN8facebook5velox10expression9calculate6Parser7yystos_E = constant [52 x i8] c"\00\01\0B\1A\0C\00\03\06\07\0A\0B\14\1B\1B\03\03\1B\08\0D\0E\0F\10\11\12\13\14\15\16\17\04\1B\1B\1B\1B\1B\1B\1B\1B\1B\1B\1B\1B\1B\1B\05\05\09\1B\1B\1B\04\04", align 16

; Function Attrs: mustprogress nounwind uwtable
define linkonce_odr noundef ptr @_ZN8facebook5velox10expression9calculate6Parser10value_type5yyas_INSt7__cxx1112basic_stringIcSt11char_traitsIcESaIcEEEEEPT_v(ptr noundef nonnull align 16 dereferenceable(32) %this) #4 comdat align 2 {
entry:
  %this.addr = alloca ptr, align 8
  %yyp = alloca ptr, align 8
  store ptr %this, ptr %this.addr, align 8
  %this1 = load ptr, ptr %this.addr, align 8
  %0 = getelementptr inbounds %"class.facebook::velox::expression::calculate::Parser::value_type", ptr %this1, i32 0, i32 0
  %arraydecay = getelementptr inbounds [32 x i8], ptr %0, i64 0, i64 0
  store ptr %arraydecay, ptr %yyp, align 8
  %1 = load ptr, ptr %yyp, align 8
  ret ptr %1
}

; Function Attrs: noreturn nounwind uwtable
define linkonce_odr hidden void @__clang_call_terminate(ptr noundef %0) #8 comdat {
  %2 = call ptr @__cxa_begin_catch(ptr %0) #3
  call void @_ZSt9terminatev() #14
  unreachable
}

; Function Attrs: mustprogress nounwind uwtable
define void @_ZN8facebook5velox10expression9calculate6Parser8by_state5clearEv(ptr noundef nonnull align 1 dereferenceable(1) %this) #4 align 2 {
entry:
  %this.addr = alloca ptr, align 8
  store ptr %this, ptr %this.addr, align 8
  %this1 = load ptr, ptr %this.addr, align 8
  %state = getelementptr inbounds %"struct.facebook::velox::expression::calculate::Parser::by_state", ptr %this1, i32 0, i32 0
  store i8 0, ptr %state, align 1
  ret void
}

; Function Attrs: mustprogress nounwind uwtable
define linkonce_odr noundef ptr @_ZN8facebook5velox10expression9calculate6Parser10value_type5yyas_IxEEPT_v(ptr noundef nonnull align 16 dereferenceable(32) %this) #4 comdat align 2 {
entry:
  %this.addr = alloca ptr, align 8
  %yyp = alloca ptr, align 8
  store ptr %this, ptr %this.addr, align 8
  %this1 = load ptr, ptr %this.addr, align 8
  %0 = getelementptr inbounds %"class.facebook::velox::expression::calculate::Parser::value_type", ptr %this1, i32 0, i32 0
  %arraydecay = getelementptr inbounds [32 x i8], ptr %0, i64 0, i64 0
  store ptr %arraydecay, ptr %yyp, align 8
  %1 = load ptr, ptr %yyp, align 8
  ret ptr %1
}

; Function Attrs: mustprogress nounwind uwtable
define linkonce_odr void @_ZN8facebook5velox10expression9calculate6Parser10value_type7destroyINSt7__cxx1112basic_stringIcSt11char_traitsIcESaIcEEEEEvv(ptr noundef nonnull align 16 dereferenceable(32) %this) #4 comdat align 2 {
entry:
  %this.addr = alloca ptr, align 8
  store ptr %this, ptr %this.addr, align 8
  %this1 = load ptr, ptr %this.addr, align 8
  %call = call noundef nonnull align 8 dereferenceable(32) ptr @_ZN8facebook5velox10expression9calculate6Parser10value_type2asINSt7__cxx1112basic_stringIcSt11char_traitsIcESaIcEEEEERT_v(ptr noundef nonnull align 16 dereferenceable(32) %this1) #3
  call void @_ZNSt7__cxx1112basic_stringIcSt11char_traitsIcESaIcEED1Ev(ptr noundef nonnull align 8 dereferenceable(32) %call) #3
  ret void
}

; Function Attrs: mustprogress nounwind uwtable
define linkonce_odr noundef nonnull align 8 dereferenceable(32) ptr @_ZN8facebook5velox10expression9calculate6Parser10value_type7emplaceINSt7__cxx1112basic_stringIcSt11char_traitsIcESaIcEEEJSB_EEERT_DpOT0_(ptr noundef nonnull align 16 dereferenceable(32) %this, ptr noundef nonnull align 8 dereferenceable(32) %u) #4 comdat align 2 {
entry:
  %this.addr = alloca ptr, align 8
  %u.addr = alloca ptr, align 8
  store ptr %this, ptr %this.addr, align 8
  store ptr %u, ptr %u.addr, align 8
  %this1 = load ptr, ptr %this.addr, align 8
  %call = call noundef ptr @_ZN8facebook5velox10expression9calculate6Parser10value_type5yyas_INSt7__cxx1112basic_stringIcSt11char_traitsIcESaIcEEEEEPT_v(ptr noundef nonnull align 16 dereferenceable(32) %this1) #3
  %0 = load ptr, ptr %u.addr, align 8
  call void @_ZNSt7__cxx1112basic_stringIcSt11char_traitsIcESaIcEEC1EOS4_(ptr noundef nonnull align 8 dereferenceable(32) %call, ptr noundef nonnull align 8 dereferenceable(32) %0) #3
  ret ptr %call
}

; Function Attrs: mustprogress nounwind uwtable
define linkonce_odr noundef nonnull align 8 dereferenceable(32) ptr @_ZN8facebook5velox10expression9calculate6Parser10value_type2asINSt7__cxx1112basic_stringIcSt11char_traitsIcESaIcEEEEERT_v(ptr noundef nonnull align 16 dereferenceable(32) %this) #4 comdat align 2 {
entry:
  %this.addr = alloca ptr, align 8
  store ptr %this, ptr %this.addr, align 8
  %this1 = load ptr, ptr %this.addr, align 8
  %call = call noundef ptr @_ZN8facebook5velox10expression9calculate6Parser10value_type5yyas_INSt7__cxx1112basic_stringIcSt11char_traitsIcESaIcEEEEEPT_v(ptr noundef nonnull align 16 dereferenceable(32) %this1) #3
  ret ptr %call
}

; Function Attrs: mustprogress nounwind uwtable
define linkonce_odr void @_ZN8facebook5velox10expression9calculate6Parser10value_typeD2Ev(ptr noundef nonnull align 16 dereferenceable(32) %this) unnamed_addr #4 comdat align 2 {
entry:
  %this.addr = alloca ptr, align 8
  store ptr %this, ptr %this.addr, align 8
  ret void
}

; Function Attrs: mustprogress nounwind uwtable
define linkonce_odr void @_ZN8facebook5velox10expression9calculate6Parser12basic_symbolINS3_8by_stateEE5clearEv(ptr noundef nonnull align 16 dereferenceable(48) %this) #4 comdat align 2 personality ptr @__gxx_personality_v0 {
entry:
  %this.addr = alloca ptr, align 8
  %yykind = alloca i32, align 4
  %yysym = alloca ptr, align 8
  store ptr %this, ptr %this.addr, align 8
  %this1 = load ptr, ptr %this.addr, align 8
  %call = call noundef i32 @_ZNK8facebook5velox10expression9calculate6Parser8by_state4kindEv(ptr noundef nonnull align 1 dereferenceable(1) %this1) #3
  store i32 %call, ptr %yykind, align 4
  store ptr %this1, ptr %yysym, align 8
  %0 = load i32, ptr %yykind, align 4
  switch i32 %0, label %sw.default [
  ]

sw.default:                                       ; preds = %entry
  br label %sw.epilog

sw.epilog:                                        ; preds = %sw.default
  %1 = load i32, ptr %yykind, align 4
  switch i32 %1, label %sw.default5 [
    i32 10, label %sw.bb
    i32 27, label %sw.bb
    i32 11, label %sw.bb2
  ]

sw.bb:                                            ; preds = %sw.epilog, %sw.epilog
  %value = getelementptr inbounds %"struct.facebook::velox::expression::calculate::Parser::basic_symbol", ptr %this1, i32 0, i32 1
  invoke void @_ZN8facebook5velox10expression9calculate6Parser10value_type7destroyIxEEvv(ptr noundef nonnull align 16 dereferenceable(32) %value)
          to label %invoke.cont unwind label %terminate.lpad

invoke.cont:                                      ; preds = %sw.bb
  br label %sw.epilog6

sw.bb2:                                           ; preds = %sw.epilog
  %value3 = getelementptr inbounds %"struct.facebook::velox::expression::calculate::Parser::basic_symbol", ptr %this1, i32 0, i32 1
  invoke void @_ZN8facebook5velox10expression9calculate6Parser10value_type7destroyINSt7__cxx1112basic_stringIcSt11char_traitsIcESaIcEEEEEvv(ptr noundef nonnull align 16 dereferenceable(32) %value3)
          to label %invoke.cont4 unwind label %terminate.lpad

invoke.cont4:                                     ; preds = %sw.bb2
  br label %sw.epilog6

sw.default5:                                      ; preds = %sw.epilog
  br label %sw.epilog6

sw.epilog6:                                       ; preds = %sw.default5, %invoke.cont4, %invoke.cont
  call void @_ZN8facebook5velox10expression9calculate6Parser8by_state5clearEv(ptr noundef nonnull align 1 dereferenceable(1) %this1) #3
  ret void

terminate.lpad:                                   ; preds = %sw.bb2, %sw.bb
  %2 = landingpad { ptr, i32 }
          catch ptr null
  %3 = extractvalue { ptr, i32 } %2, 0
  call void @__clang_call_terminate(ptr %3) #14
  unreachable
}

; Function Attrs: mustprogress nounwind uwtable
define linkonce_odr void @_ZN8facebook5velox10expression9calculate6Parser10value_type7destroyIxEEvv(ptr noundef nonnull align 16 dereferenceable(32) %this) #4 comdat align 2 {
entry:
  %this.addr = alloca ptr, align 8
  store ptr %this, ptr %this.addr, align 8
  %this1 = load ptr, ptr %this.addr, align 8
  %call = call noundef nonnull align 8 dereferenceable(8) ptr @_ZN8facebook5velox10expression9calculate6Parser10value_type2asIxEERT_v(ptr noundef nonnull align 16 dereferenceable(32) %this1) #3
  ret void
}

; Function Attrs: mustprogress nounwind uwtable
define linkonce_odr noundef nonnull align 8 dereferenceable(8) ptr @_ZN8facebook5velox10expression9calculate6Parser10value_type7emplaceIxJxEEERT_DpOT0_(ptr noundef nonnull align 16 dereferenceable(32) %this, ptr noundef nonnull align 8 dereferenceable(8) %u) #4 comdat align 2 {
entry:
  %this.addr = alloca ptr, align 8
  %u.addr = alloca ptr, align 8
  store ptr %this, ptr %this.addr, align 8
  store ptr %u, ptr %u.addr, align 8
  %this1 = load ptr, ptr %this.addr, align 8
  %call = call noundef ptr @_ZN8facebook5velox10expression9calculate6Parser10value_type5yyas_IxEEPT_v(ptr noundef nonnull align 16 dereferenceable(32) %this1) #3
  %0 = load ptr, ptr %u.addr, align 8
  %1 = load i64, ptr %0, align 8
  store i64 %1, ptr %call, align 8
  ret ptr %call
}

; Function Attrs: mustprogress nounwind uwtable
define linkonce_odr noundef nonnull align 8 dereferenceable(8) ptr @_ZN8facebook5velox10expression9calculate6Parser10value_type2asIxEERT_v(ptr noundef nonnull align 16 dereferenceable(32) %this) #4 comdat align 2 {
entry:
  %this.addr = alloca ptr, align 8
  store ptr %this, ptr %this.addr, align 8
  %this1 = load ptr, ptr %this.addr, align 8
  %call = call noundef ptr @_ZN8facebook5velox10expression9calculate6Parser10value_type5yyas_IxEEPT_v(ptr noundef nonnull align 16 dereferenceable(32) %this1) #3
  ret ptr %call
}

; Function Attrs: mustprogress nounwind uwtable
define linkonce_odr void @_ZN8facebook5velox10expression9calculate6Parser10value_typeC2Ev(ptr noundef nonnull align 16 dereferenceable(32) %this) unnamed_addr #4 comdat align 2 {
entry:
  %this.addr = alloca ptr, align 8
  store ptr %this, ptr %this.addr, align 8
  %this1 = load ptr, ptr %this.addr, align 8
  %0 = getelementptr inbounds %"class.facebook::velox::expression::calculate::Parser::value_type", ptr %this1, i32 0, i32 0
  call void @llvm.memset.p0.i64(ptr align 16 %0, i8 0, i64 32, i1 false)
  ret void
}

; Function Attrs: mustprogress nounwind uwtable
define void @_ZN8facebook5velox10expression9calculate6Parser8by_stateC2Ea(ptr noundef nonnull align 1 dereferenceable(1) %this, i8 noundef signext %s) unnamed_addr #4 align 2 {
entry:
  %this.addr = alloca ptr, align 8
  %s.addr = alloca i8, align 1
  store ptr %this, ptr %this.addr, align 8
  store i8 %s, ptr %s.addr, align 1
  %this1 = load ptr, ptr %this.addr, align 8
  %state = getelementptr inbounds %"struct.facebook::velox::expression::calculate::Parser::by_state", ptr %this1, i32 0, i32 0
  %0 = load i8, ptr %s.addr, align 1
  store i8 %0, ptr %state, align 1
  ret void
}

; Function Attrs: mustprogress uwtable
define linkonce_odr void @_ZN8facebook5velox10expression9calculate6Parser10value_type4moveINSt7__cxx1112basic_stringIcSt11char_traitsIcESaIcEEEEEvOS4_(ptr noundef nonnull align 16 dereferenceable(32) %this, ptr noundef nonnull align 16 dereferenceable(32) %that) #6 comdat align 2 {
entry:
  %this.addr = alloca ptr, align 8
  %that.addr = alloca ptr, align 8
  store ptr %this, ptr %this.addr, align 8
  store ptr %that, ptr %that.addr, align 8
  %this1 = load ptr, ptr %this.addr, align 8
  %0 = load ptr, ptr %that.addr, align 8
  %call = call noundef nonnull align 8 dereferenceable(32) ptr @_ZN8facebook5velox10expression9calculate6Parser10value_type2asINSt7__cxx1112basic_stringIcSt11char_traitsIcESaIcEEEEERT_v(ptr noundef nonnull align 16 dereferenceable(32) %0) #3
  %call2 = call noundef nonnull align 8 dereferenceable(32) ptr @_ZN8facebook5velox10expression9calculate6Parser10value_type7emplaceINSt7__cxx1112basic_stringIcSt11char_traitsIcESaIcEEEJSB_EEERT_DpOT0_(ptr noundef nonnull align 16 dereferenceable(32) %this1, ptr noundef nonnull align 8 dereferenceable(32) %call)
  %1 = load ptr, ptr %that.addr, align 8
  call void @_ZN8facebook5velox10expression9calculate6Parser10value_type7destroyINSt7__cxx1112basic_stringIcSt11char_traitsIcESaIcEEEEEvv(ptr noundef nonnull align 16 dereferenceable(32) %1)
  ret void
}

; Function Attrs: mustprogress nounwind uwtable
define linkonce_odr void @_ZN8facebook5velox10expression9calculate6Parser12basic_symbolINS3_8by_stateEED2Ev(ptr noundef nonnull align 16 dereferenceable(48) %this) unnamed_addr #4 comdat align 2 {
entry:
  %this.addr = alloca ptr, align 8
  store ptr %this, ptr %this.addr, align 8
  %this1 = load ptr, ptr %this.addr, align 8
  call void @_ZN8facebook5velox10expression9calculate6Parser12basic_symbolINS3_8by_stateEE5clearEv(ptr noundef nonnull align 16 dereferenceable(48) %this1) #3
  %value = getelementptr inbounds %"struct.facebook::velox::expression::calculate::Parser::basic_symbol", ptr %this1, i32 0, i32 1
  call void @_ZN8facebook5velox10expression9calculate6Parser10value_typeD2Ev(ptr noundef nonnull align 16 dereferenceable(32) %value) #3
  ret void
}

; Function Attrs: mustprogress uwtable
define linkonce_odr void @_ZN8facebook5velox10expression9calculate6Parser10value_type4moveIxEEvOS4_(ptr noundef nonnull align 16 dereferenceable(32) %this, ptr noundef nonnull align 16 dereferenceable(32) %that) #6 comdat align 2 {
entry:
  %this.addr = alloca ptr, align 8
  %that.addr = alloca ptr, align 8
  store ptr %this, ptr %this.addr, align 8
  store ptr %that, ptr %that.addr, align 8
  %this1 = load ptr, ptr %this.addr, align 8
  %0 = load ptr, ptr %that.addr, align 8
  %call = call noundef nonnull align 8 dereferenceable(8) ptr @_ZN8facebook5velox10expression9calculate6Parser10value_type2asIxEERT_v(ptr noundef nonnull align 16 dereferenceable(32) %0) #3
  %call2 = call noundef nonnull align 8 dereferenceable(8) ptr @_ZN8facebook5velox10expression9calculate6Parser10value_type7emplaceIxJxEEERT_DpOT0_(ptr noundef nonnull align 16 dereferenceable(32) %this1, ptr noundef nonnull align 8 dereferenceable(8) %call)
  %1 = load ptr, ptr %that.addr, align 8
  call void @_ZN8facebook5velox10expression9calculate6Parser10value_type7destroyIxEEvv(ptr noundef nonnull align 16 dereferenceable(32) %1)
  ret void
}

; Function Attrs: mustprogress nounwind uwtable
define noundef i32 @_ZNK8facebook5velox10expression9calculate6Parser8by_state4kindEv(ptr noundef nonnull align 1 dereferenceable(1) %this) #4 align 2 {
entry:
  %retval = alloca i32, align 4
  %this.addr = alloca ptr, align 8
  store ptr %this, ptr %this.addr, align 8
  %this1 = load ptr, ptr %this.addr, align 8
  %state = getelementptr inbounds %"struct.facebook::velox::expression::calculate::Parser::by_state", ptr %this1, i32 0, i32 0
  %0 = load i8, ptr %state, align 1
  %conv = sext i8 %0 to i32
  %cmp = icmp eq i32 %conv, 0
  br i1 %cmp, label %if.then, label %if.else

if.then:                                          ; preds = %entry
  store i32 -2, ptr %retval, align 4
  br label %return

if.else:                                          ; preds = %entry
  %state2 = getelementptr inbounds %"struct.facebook::velox::expression::calculate::Parser::by_state", ptr %this1, i32 0, i32 0
  %1 = load i8, ptr %state2, align 1
  %conv3 = sext i8 %1 to i32
  %idxprom = sext i32 %conv3 to i64
  %arrayidx = getelementptr inbounds [0 x i8], ptr @_ZN8facebook5velox10expression9calculate6Parser7yystos_E, i64 0, i64 %idxprom
  %2 = load i8, ptr %arrayidx, align 1
  %conv4 = sext i8 %2 to i32
  store i32 %conv4, ptr %retval, align 4
  br label %return

return:                                           ; preds = %if.else, %if.then
  %3 = load i32, ptr %retval, align 4
  ret i32 %3
}

; Function Attrs: mustprogress nounwind uwtable
define linkonce_odr void @_ZN8facebook5velox10expression9calculate6Parser12basic_symbolINS3_8by_stateEEC2Ea(ptr noundef nonnull align 16 dereferenceable(48) %this, i8 noundef signext %t) unnamed_addr #4 comdat align 2 {
entry:
  %this.addr = alloca ptr, align 8
  %t.addr = alloca i8, align 1
  store ptr %this, ptr %this.addr, align 8
  store i8 %t, ptr %t.addr, align 1
  %this1 = load ptr, ptr %this.addr, align 8
  %0 = load i8, ptr %t.addr, align 1
  call void @_ZN8facebook5velox10expression9calculate6Parser8by_stateC2Ea(ptr noundef nonnull align 1 dereferenceable(1) %this1, i8 noundef signext %0) #3
  %value = getelementptr inbounds %"struct.facebook::velox::expression::calculate::Parser::basic_symbol", ptr %this1, i32 0, i32 1
  call void @_ZN8facebook5velox10expression9calculate6Parser10value_typeC2Ev(ptr noundef nonnull align 16 dereferenceable(32) %value) #3
  ret void
}

; Function Attrs: mustprogress uwtable
define void @_ZN8facebook5velox10expression9calculate6Parser17stack_symbol_typeC2EOS4_(ptr noundef nonnull align 16 dereferenceable(48) %this, ptr noundef nonnull align 16 dereferenceable(48) %that) unnamed_addr #6 align 2 personality ptr @__gxx_personality_v0 {
entry:
  %this.addr = alloca ptr, align 8
  %that.addr = alloca ptr, align 8
  %exn.slot = alloca ptr, align 8
  %ehselector.slot = alloca i32, align 4
  store ptr %this, ptr %this.addr, align 8
  store ptr %that, ptr %that.addr, align 8
  %this1 = load ptr, ptr %this.addr, align 8
  %0 = load ptr, ptr %that.addr, align 8
  %state = getelementptr inbounds %"struct.facebook::velox::expression::calculate::Parser::by_state", ptr %0, i32 0, i32 0
  %1 = load i8, ptr %state, align 1
  call void @_ZN8facebook5velox10expression9calculate6Parser12basic_symbolINS3_8by_stateEEC2Ea(ptr noundef nonnull align 16 dereferenceable(48) %this1, i8 noundef signext %1)
  %2 = load ptr, ptr %that.addr, align 8
  %call = call noundef i32 @_ZNK8facebook5velox10expression9calculate6Parser8by_state4kindEv(ptr noundef nonnull align 1 dereferenceable(1) %2) #3
  switch i32 %call, label %sw.default [
    i32 10, label %sw.bb
    i32 27, label %sw.bb
    i32 11, label %sw.bb3
  ]

sw.bb:                                            ; preds = %entry, %entry
  %value = getelementptr inbounds %"struct.facebook::velox::expression::calculate::Parser::basic_symbol", ptr %this1, i32 0, i32 1
  %3 = load ptr, ptr %that.addr, align 8
  %value2 = getelementptr inbounds %"struct.facebook::velox::expression::calculate::Parser::basic_symbol", ptr %3, i32 0, i32 1
  invoke void @_ZN8facebook5velox10expression9calculate6Parser10value_type4moveIxEEvOS4_(ptr noundef nonnull align 16 dereferenceable(32) %value, ptr noundef nonnull align 16 dereferenceable(32) %value2)
          to label %invoke.cont unwind label %lpad

invoke.cont:                                      ; preds = %sw.bb
  br label %sw.epilog

lpad:                                             ; preds = %sw.bb3, %sw.bb
  %4 = landingpad { ptr, i32 }
          cleanup
  %5 = extractvalue { ptr, i32 } %4, 0
  store ptr %5, ptr %exn.slot, align 8
  %6 = extractvalue { ptr, i32 } %4, 1
  store i32 %6, ptr %ehselector.slot, align 4
  call void @_ZN8facebook5velox10expression9calculate6Parser12basic_symbolINS3_8by_stateEED2Ev(ptr noundef nonnull align 16 dereferenceable(48) %this1) #3
  br label %eh.resume

sw.bb3:                                           ; preds = %entry
  %value4 = getelementptr inbounds %"struct.facebook::velox::expression::calculate::Parser::basic_symbol", ptr %this1, i32 0, i32 1
  %7 = load ptr, ptr %that.addr, align 8
  %value5 = getelementptr inbounds %"struct.facebook::velox::expression::calculate::Parser::basic_symbol", ptr %7, i32 0, i32 1
  invoke void @_ZN8facebook5velox10expression9calculate6Parser10value_type4moveINSt7__cxx1112basic_stringIcSt11char_traitsIcESaIcEEEEEvOS4_(ptr noundef nonnull align 16 dereferenceable(32) %value4, ptr noundef nonnull align 16 dereferenceable(32) %value5)
          to label %invoke.cont6 unwind label %lpad

invoke.cont6:                                     ; preds = %sw.bb3
  br label %sw.epilog

sw.default:                                       ; preds = %entry
  br label %sw.epilog

sw.epilog:                                        ; preds = %sw.default, %invoke.cont6, %invoke.cont
  %8 = load ptr, ptr %that.addr, align 8
  %state7 = getelementptr inbounds %"struct.facebook::velox::expression::calculate::Parser::by_state", ptr %8, i32 0, i32 0
  store i8 0, ptr %state7, align 16
  ret void

eh.resume:                                        ; preds = %lpad
  %exn = load ptr, ptr %exn.slot, align 8
  %sel = load i32, ptr %ehselector.slot, align 4
  %lpad.val = insertvalue { ptr, i32 } poison, ptr %exn, 0
  %lpad.val8 = insertvalue { ptr, i32 } %lpad.val, i32 %sel, 1
  resume { ptr, i32 } %lpad.val8
}