; Function Attrs: mustprogress nounwind uwtable
define void @_ZN8facebook5velox10expression9calculate6Parser17stack_symbol_typeC2EOS4_(ptr noundef nonnull align 16 dereferenceable(48) %this, ptr noundef nonnull align 16 dereferenceable(48) %that) unnamed_addr #3 align 2 personality ptr @__gxx_personality_v0 {
entry:
  %0 = load i8, ptr %that, align 16
  store i8 %0, ptr %this, align 16
  %value.i = getelementptr inbounds i8, ptr %this, i64 16
  tail call void @llvm.memset.p0.i64(ptr noundef nonnull align 16 dereferenceable(32) %value.i, i8 0, i64 32, i1 false)
  %1 = load i8, ptr %that, align 16
  %cmp.i = icmp eq i8 %1, 0
  br i1 %cmp.i, label %sw.epilog, label %_ZNK8facebook5velox10expression9calculate6Parser8by_state4kindEv.exit

_ZNK8facebook5velox10expression9calculate6Parser8by_state4kindEv.exit: ; preds = %entry
  %idxprom.i = sext i8 %1 to i64
  %arrayidx.i = getelementptr inbounds [0 x i8], ptr @_ZN8facebook5velox10expression9calculate6Parser7yystos_E, i64 0, i64 %idxprom.i
  %2 = load i8, ptr %arrayidx.i, align 1
  switch i8 %2, label %sw.epilog [
    i8 10, label %sw.bb
    i8 27, label %sw.bb
    i8 11, label %sw.bb3
  ]

sw.bb:                                            ; preds = %_ZNK8facebook5velox10expression9calculate6Parser8by_state4kindEv.exit, %_ZNK8facebook5velox10expression9calculate6Parser8by_state4kindEv.exit
  %value2 = getelementptr inbounds i8, ptr %that, i64 16
  %3 = load i64, ptr %value2, align 16
  store i64 %3, ptr %value.i, align 16
  br label %sw.epilog

sw.bb3:                                           ; preds = %_ZNK8facebook5velox10expression9calculate6Parser8by_state4kindEv.exit
  %value5 = getelementptr inbounds i8, ptr %that, i64 16
  tail call void @_ZNSt7__cxx1112basic_stringIcSt11char_traitsIcESaIcEEC1EOS4_(ptr noundef nonnull align 8 dereferenceable(32) %value.i, ptr noundef nonnull align 8 dereferenceable(32) %value5) #25
  tail call void @_ZNSt7__cxx1112basic_stringIcSt11char_traitsIcESaIcEED1Ev(ptr noundef nonnull align 8 dereferenceable(32) %value5) #25
  br label %sw.epilog

sw.epilog:                                        ; preds = %entry, %sw.bb3, %sw.bb, %_ZNK8facebook5velox10expression9calculate6Parser8by_state4kindEv.exit
  store i8 0, ptr %that, align 16
  ret void
}